target datalayout = "e-m:e-p270:32:32-p271:32:32-p272:64:64-i64:64-i128:128-f80:128-n8:16:32:64-S128"
target triple = "x86_64-pc-linux-gnu"

%struct.prov_aes_xts_ctx_st = type { %struct.prov_cipher_ctx_st, %union.anon.0, %union.anon.0, %struct.xts128_context, ptr, %union.anon.1 }
%struct.prov_cipher_ctx_st = type { [16 x i8], [16 x i8], [16 x i8], ptr, %union.anon, i32, i64, i64, i64, i64, i32, i8, i32, ptr, i32, i64, i32, i64, i32, ptr, ptr, ptr }
%union.anon = type { ptr }
%union.anon.0 = type { double, [240 x i8] }
%struct.xts128_context = type { ptr, ptr, ptr, ptr }
%union.anon.1 = type { i32 }

@.str = private unnamed_addr constant [62 x i8] c"../openssl/providers/implementations/ciphers/cipher_aes_xts.c\00", align 1
@__func__.aes_xts_cipher = private unnamed_addr constant [15 x i8] c"aes_xts_cipher\00", align 1

; Function Attrs: nounwind uwtable
define internal i32 @aes_xts_cipher(ptr noundef %0, ptr noundef %1, ptr noundef %2, i64 noundef %3, ptr noundef %4, i64 noundef %5) #0 {
  %7 = alloca i32, align 4
  %8 = alloca ptr, align 8
  %9 = alloca ptr, align 8
  %10 = alloca ptr, align 8
  %11 = alloca i64, align 8
  %12 = alloca ptr, align 8
  %13 = alloca i64, align 8
  %14 = alloca ptr, align 8
  %15 = alloca i32, align 4
  store ptr %0, ptr %8, align 8, !tbaa !3
  store ptr %1, ptr %9, align 8, !tbaa !7
  store ptr %2, ptr %10, align 8, !tbaa !13
  store i64 %3, ptr %11, align 8, !tbaa !9
  store ptr %4, ptr %12, align 8, !tbaa !7
  store i64 %5, ptr %13, align 8, !tbaa !9
  call void @llvm.lifetime.start.p0(i64 8, ptr %14) #4
  %16 = load ptr, ptr %8, align 8, !tbaa !3
  store ptr %16, ptr %14, align 8, !tbaa !15
  %17 = call i32 @ossl_prov_is_running()
  %18 = icmp ne i32 %17, 0
  br i1 %18, label %19, label %49

19:                                               ; preds = %6
  %20 = load ptr, ptr %14, align 8, !tbaa !15
  %21 = getelementptr inbounds nuw %struct.prov_aes_xts_ctx_st, ptr %20, i32 0, i32 3
  %22 = getelementptr inbounds nuw %struct.xts128_context, ptr %21, i32 0, i32 0
  %23 = load ptr, ptr %22, align 8, !tbaa !17
  %24 = icmp eq ptr %23, null
  br i1 %24, label %49, label %25

25:                                               ; preds = %19
  %26 = load ptr, ptr %14, align 8, !tbaa !15
  %27 = getelementptr inbounds nuw %struct.prov_aes_xts_ctx_st, ptr %26, i32 0, i32 3
  %28 = getelementptr inbounds nuw %struct.xts128_context, ptr %27, i32 0, i32 1
  %29 = load ptr, ptr %28, align 8, !tbaa !24
  %30 = icmp eq ptr %29, null
  br i1 %30, label %49, label %31

31:                                               ; preds = %25
  %32 = load ptr, ptr %14, align 8, !tbaa !15
  %33 = getelementptr inbounds nuw %struct.prov_aes_xts_ctx_st, ptr %32, i32 0, i32 0
  %34 = getelementptr inbounds nuw %struct.prov_cipher_ctx_st, ptr %33, i32 0, i32 11
  %35 = load i8, ptr %34, align 4
  %36 = lshr i8 %35, 2
  %37 = and i8 %36, 1
  %38 = zext i8 %37 to i32
  %39 = icmp ne i32 %38, 0
  br i1 %39, label %40, label %49

40:                                               ; preds = %31
  %41 = load ptr, ptr %9, align 8, !tbaa !7
  %42 = icmp eq ptr %41, null
  br i1 %42, label %49, label %43

43:                                               ; preds = %40
  %44 = load ptr, ptr %12, align 8, !tbaa !7
  %45 = icmp eq ptr %44, null
  br i1 %45, label %49, label %46

46:                                               ; preds = %43
  %47 = load i64, ptr %13, align 8, !tbaa !9
  %48 = icmp ult i64 %47, 16
  br i1 %48, label %49, label %50

49:                                               ; preds = %46, %43, %40, %31, %25, %19, %6
  store i32 0, ptr %7, align 4
  store i32 1, ptr %15, align 4
  br label %102

50:                                               ; preds = %46
  %51 = load i64, ptr %13, align 8, !tbaa !9
  %52 = icmp ugt i64 %51, 16777216
  br i1 %52, label %53, label %54

53:                                               ; preds = %50
  call void @ERR_new()
  call void @ERR_set_debug(ptr noundef @.str, i32 noundef 202, ptr noundef @__func__.aes_xts_cipher)
  call void (i32, i32, ptr, ...) @ERR_set_error(i32 noundef 57, i32 noundef 148, ptr noundef null)
  store i32 0, ptr %7, align 4
  store i32 1, ptr %15, align 4
  br label %102

54:                                               ; preds = %50
  %55 = load ptr, ptr %14, align 8, !tbaa !15
  %56 = getelementptr inbounds nuw %struct.prov_aes_xts_ctx_st, ptr %55, i32 0, i32 4
  %57 = load ptr, ptr %56, align 8, !tbaa !25
  %58 = icmp ne ptr %57, null
  br i1 %58, label %59, label %78

59:                                               ; preds = %54
  %60 = load ptr, ptr %14, align 8, !tbaa !15
  %61 = getelementptr inbounds nuw %struct.prov_aes_xts_ctx_st, ptr %60, i32 0, i32 4
  %62 = load ptr, ptr %61, align 8, !tbaa !25
  %63 = load ptr, ptr %12, align 8, !tbaa !7
  %64 = load ptr, ptr %9, align 8, !tbaa !7
  %65 = load i64, ptr %13, align 8, !tbaa !9
  %66 = load ptr, ptr %14, align 8, !tbaa !15
  %67 = getelementptr inbounds nuw %struct.prov_aes_xts_ctx_st, ptr %66, i32 0, i32 3
  %68 = getelementptr inbounds nuw %struct.xts128_context, ptr %67, i32 0, i32 0
  %69 = load ptr, ptr %68, align 8, !tbaa !17
  %70 = load ptr, ptr %14, align 8, !tbaa !15
  %71 = getelementptr inbounds nuw %struct.prov_aes_xts_ctx_st, ptr %70, i32 0, i32 3
  %72 = getelementptr inbounds nuw %struct.xts128_context, ptr %71, i32 0, i32 1
  %73 = load ptr, ptr %72, align 8, !tbaa !24
  %74 = load ptr, ptr %14, align 8, !tbaa !15
  %75 = getelementptr inbounds nuw %struct.prov_aes_xts_ctx_st, ptr %74, i32 0, i32 0
  %76 = getelementptr inbounds nuw %struct.prov_cipher_ctx_st, ptr %75, i32 0, i32 2
  %77 = getelementptr inbounds [16 x i8], ptr %76, i64 0, i64 0
  call void %62(ptr noundef %63, ptr noundef %64, i64 noundef %65, ptr noundef %69, ptr noundef %73, ptr noundef %77)
  br label %99

78:                                               ; preds = %54
  %79 = load ptr, ptr %14, align 8, !tbaa !15
  %80 = getelementptr inbounds nuw %struct.prov_aes_xts_ctx_st, ptr %79, i32 0, i32 3
  %81 = load ptr, ptr %14, align 8, !tbaa !15
  %82 = getelementptr inbounds nuw %struct.prov_aes_xts_ctx_st, ptr %81, i32 0, i32 0
  %83 = getelementptr inbounds nuw %struct.prov_cipher_ctx_st, ptr %82, i32 0, i32 2
  %84 = getelementptr inbounds [16 x i8], ptr %83, i64 0, i64 0
  %85 = load ptr, ptr %12, align 8, !tbaa !7
  %86 = load ptr, ptr %9, align 8, !tbaa !7
  %87 = load i64, ptr %13, align 8, !tbaa !9
  %88 = load ptr, ptr %14, align 8, !tbaa !15
  %89 = getelementptr inbounds nuw %struct.prov_aes_xts_ctx_st, ptr %88, i32 0, i32 0
  %90 = getelementptr inbounds nuw %struct.prov_cipher_ctx_st, ptr %89, i32 0, i32 11
  %91 = load i8, ptr %90, align 4
  %92 = lshr i8 %91, 1
  %93 = and i8 %92, 1
  %94 = zext i8 %93 to i32
  %95 = call i32 @CRYPTO_xts128_encrypt(ptr noundef %80, ptr noundef %84, ptr noundef %85, ptr noundef %86, i64 noundef %87, i32 noundef %94)
  %96 = icmp ne i32 %95, 0
  br i1 %96, label %97, label %98

97:                                               ; preds = %78
  store i32 0, ptr %7, align 4
  store i32 1, ptr %15, align 4
  br label %102

98:                                               ; preds = %78
  br label %99

99:                                               ; preds = %98, %59
  %100 = load i64, ptr %13, align 8, !tbaa !9
  %101 = load ptr, ptr %10, align 8, !tbaa !13
  store i64 %100, ptr %101, align 8, !tbaa !9
  store i32 1, ptr %7, align 4
  store i32 1, ptr %15, align 4
  br label %102

102:                                              ; preds = %99, %97, %53, %49
  call void @llvm.lifetime.end.p0(i64 8, ptr %14) #4
  %103 = load i32, ptr %7, align 4
  ret i32 %103
}